target datalayout = "e-m:e-p270:32:32-p271:32:32-p272:64:64-i64:64-i128:128-f80:128-n8:16:32:64-S128"
target triple = "x86_64-pc-linux-gnu"

; Function Attrs: mustprogress nounwind uwtable
define noundef zeroext i1 @_ZN5folly6detail11MemoryIdler27isUnmapUnusedStackAvailableEv() #3 align 2 personality ptr @__gxx_personality_v0 {
  %1 = alloca i1, align 1
  %2 = invoke noundef i64 @_ZN5folly13getOSThreadIDEv()
          to label %3 unwind label %12

3:                                                ; preds = %0
  %4 = invoke noundef i32 @_ZN5folly14get_cached_pidEv()
          to label %5 unwind label %12

5:                                                ; preds = %3
  %6 = sext i32 %4 to i64
  %7 = icmp eq i64 %2, %6
  br i1 %7, label %8, label %9

8:                                                ; preds = %5
  store i1 false, ptr %1, align 1
  br label %10

9:                                                ; preds = %5
  store i1 true, ptr %1, align 1
  br label %10

10:                                               ; preds = %9, %8
  %11 = load i1, ptr %1, align 1
  ret i1 %11

12:                                               ; preds = %3, %0
  %13 = landingpad { ptr, i32 }
          catch ptr null
  %14 = extractvalue { ptr, i32 } %13, 0
  call void @__clang_call_terminate(ptr %14) #24
  unreachable
}