; Function Attrs: mustprogress nounwind uwtable
define noundef zeroext i1 @_ZN5folly6detail11MemoryIdler27isUnmapUnusedStackAvailableEv() local_unnamed_addr #2 align 2 personality ptr @__gxx_personality_v0 {
  %1 = invoke noundef i64 @_ZN5folly13getOSThreadIDEv()
          to label %2 unwind label %7

2:                                                ; preds = %0
  %3 = invoke noundef i32 @_ZN5folly14get_cached_pidEv()
          to label %4 unwind label %7

4:                                                ; preds = %2
  %5 = sext i32 %3 to i64
  %6 = icmp ne i64 %1, %5
  ret i1 %6

7:                                                ; preds = %2, %0
  %8 = landingpad { ptr, i32 }
          catch ptr null
  %9 = extractvalue { ptr, i32 } %8, 0
  tail call void @__clang_call_terminate(ptr %9) #23
  unreachable
}